target datalayout = "e-m:e-p270:32:32-p271:32:32-p272:64:64-i64:64-i128:128-f80:128-n8:16:32:64-S128"
target triple = "x86_64-pc-linux-gnu"

%struct.pcre2_memctl = type { ptr, ptr, ptr }

; Function Attrs: nounwind uwtable
define void @php_pcre2_substring_list_free(ptr noundef %0) #0 {
  %2 = alloca ptr, align 8
  %3 = alloca ptr, align 8
  store ptr %0, ptr %2, align 8
  %4 = load ptr, ptr %2, align 8
  %5 = icmp ne ptr %4, null
  br i1 %5, label %6, label %16

6:                                                ; preds = %1
  %7 = load ptr, ptr %2, align 8
  %8 = getelementptr inbounds i8, ptr %7, i64 -24
  store ptr %8, ptr %3, align 8
  %9 = load ptr, ptr %3, align 8
  %10 = getelementptr inbounds %struct.pcre2_memctl, ptr %9, i32 0, i32 1
  %11 = load ptr, ptr %10, align 8
  %12 = load ptr, ptr %3, align 8
  %13 = load ptr, ptr %3, align 8
  %14 = getelementptr inbounds %struct.pcre2_memctl, ptr %13, i32 0, i32 2
  %15 = load ptr, ptr %14, align 8
  call void %11(ptr noundef %12, ptr noundef %15)
  br label %16

16:                                               ; preds = %6, %1
  ret void
}