; Function Attrs: nounwind uwtable
define void @php_pcre2_substring_list_free(ptr noundef %0) local_unnamed_addr #0 {
  %.not = icmp eq ptr %0, null
  br i1 %.not, label %8, label %2

2:                                                ; preds = %1
  %3 = getelementptr inbounds i8, ptr %0, i64 -24
  %4 = getelementptr inbounds i8, ptr %0, i64 -16
  %5 = load ptr, ptr %4, align 8
  %6 = getelementptr inbounds i8, ptr %0, i64 -8
  %7 = load ptr, ptr %6, align 8
  tail call void %5(ptr noundef nonnull %3, ptr noundef %7) #6
  br label %8

8:                                                ; preds = %2, %1
  ret void
}